target datalayout = "e-m:e-p270:32:32-p271:32:32-p272:64:64-i64:64-i128:128-f80:128-n8:16:32:64-S128"
target triple = "x86_64-pc-linux-gnu"

%struct.AVRational = type { i32, i32 }

; Function Attrs: nounwind willreturn memory(none) uwtable
define i64 @av_d2q(double noundef %0, i32 noundef %1) #4 {
  %3 = alloca %struct.AVRational, align 4
  %4 = alloca double, align 8
  %5 = alloca i32, align 4
  %6 = alloca %struct.AVRational, align 4
  %7 = alloca i32, align 4
  %8 = alloca i64, align 8
  %9 = alloca i32, align 4
  store double %0, ptr %4, align 8, !tbaa !19
  store i32 %1, ptr %5, align 4, !tbaa !11
  call void @llvm.lifetime.start.p0(i64 8, ptr %6) #9
  call void @llvm.lifetime.start.p0(i64 4, ptr %7) #9
  call void @llvm.lifetime.start.p0(i64 8, ptr %8) #9
  %10 = load double, ptr %4, align 8, !tbaa !19
  %11 = call i1 @llvm.is.fpclass.f64(double %10, i32 3)
  br i1 %11, label %12, label %15

12:                                               ; preds = %2
  %13 = getelementptr inbounds nuw %struct.AVRational, ptr %3, i32 0, i32 0
  store i32 0, ptr %13, align 4, !tbaa !13
  %14 = getelementptr inbounds nuw %struct.AVRational, ptr %3, i32 0, i32 1
  store i32 0, ptr %14, align 4, !tbaa !15
  store i32 1, ptr %9, align 4
  br label %53

15:                                               ; preds = %2
  %16 = load double, ptr %4, align 8, !tbaa !19
  %17 = call nsz double @llvm.fabs.f64(double %16)
  %18 = fcmp nsz ogt double %17, 0x41E0000000400000
  br i1 %18, label %19, label %25

19:                                               ; preds = %15
  %20 = getelementptr inbounds nuw %struct.AVRational, ptr %3, i32 0, i32 0
  %21 = load double, ptr %4, align 8, !tbaa !19
  %22 = fcmp nsz olt double %21, 0.000000e+00
  %23 = select i1 %22, i32 -1, i32 1
  store i32 %23, ptr %20, align 4, !tbaa !13
  %24 = getelementptr inbounds nuw %struct.AVRational, ptr %3, i32 0, i32 1
  store i32 0, ptr %24, align 4, !tbaa !15
  store i32 1, ptr %9, align 4
  br label %53

25:                                               ; preds = %15
  %26 = load double, ptr %4, align 8, !tbaa !19
  %27 = call nsz double @frexp(double noundef %26, ptr noundef %7) #9
  %28 = load i32, ptr %7, align 4, !tbaa !11
  %29 = sub nsw i32 %28, 1
  %30 = icmp sgt i32 %29, 0
  br i1 %30, label %31, label %34

31:                                               ; preds = %25
  %32 = load i32, ptr %7, align 4, !tbaa !11
  %33 = sub nsw i32 %32, 1
  br label %35

34:                                               ; preds = %25
  br label %35

35:                                               ; preds = %34, %31
  %36 = phi i32 [ %33, %31 ], [ 0, %34 ]
  store i32 %36, ptr %7, align 4, !tbaa !11
  %37 = load i32, ptr %7, align 4, !tbaa !11
  %38 = sub nsw i32 62, %37
  %39 = zext i32 %38 to i64
  %40 = shl i64 1, %39
  store i64 %40, ptr %8, align 8, !tbaa !9
  %41 = getelementptr inbounds nuw %struct.AVRational, ptr %6, i32 0, i32 0
  %42 = getelementptr inbounds nuw %struct.AVRational, ptr %6, i32 0, i32 1
  %43 = load double, ptr %4, align 8, !tbaa !19
  %44 = load i64, ptr %8, align 8, !tbaa !9
  %45 = sitofp i64 %44 to double
  %46 = call nsz double @llvm.fmuladd.f64(double %43, double %45, double 5.000000e-01)
  %47 = call nsz double @llvm.floor.f64(double %46)
  %48 = fptosi double %47 to i64
  %49 = load i64, ptr %8, align 8, !tbaa !9
  %50 = load i32, ptr %5, align 4, !tbaa !11
  %51 = sext i32 %50 to i64
  %52 = call i32 @av_reduce(ptr noundef %41, ptr noundef %42, i64 noundef %48, i64 noundef %49, i64 noundef %51)
  call void @llvm.memcpy.p0.p0.i64(ptr align 4 %3, ptr align 4 %6, i64 8, i1 false), !tbaa.struct !16
  store i32 1, ptr %9, align 4
  br label %53

53:                                               ; preds = %35, %19, %12
  call void @llvm.lifetime.end.p0(i64 8, ptr %8) #9
  call void @llvm.lifetime.end.p0(i64 4, ptr %7) #9
  call void @llvm.lifetime.end.p0(i64 8, ptr %6) #9
  %54 = load i64, ptr %3, align 4
  ret i64 %54
}