; Function Attrs: mustprogress nofree nosync nounwind willreturn memory(none) uwtable
define i64 @av_d2q(double noundef %0, i32 noundef %1) local_unnamed_addr #3 {
  %3 = alloca %struct.AVRational, align 4
  %4 = alloca i32, align 4
  call void @llvm.lifetime.start.p0(i64 8, ptr nonnull %3) #9
  call void @llvm.lifetime.start.p0(i64 4, ptr nonnull %4) #9
  %5 = fcmp uno double %0, 0.000000e+00
  br i1 %5, label %28, label %6

6:                                                ; preds = %2
  %7 = tail call nsz double @llvm.fabs.f64(double %0)
  %8 = fcmp nsz ogt double %7, 0x41E0000000400000
  br i1 %8, label %9, label %12

9:                                                ; preds = %6
  %10 = fcmp nsz olt double %0, 0.000000e+00
  %11 = select i1 %10, i32 -1, i32 1
  br label %28

12:                                               ; preds = %6
  %13 = call nsz double @frexp(double noundef %0, ptr noundef nonnull %4) #9
  %14 = load i32, ptr %4, align 4, !tbaa !4
  %15 = tail call i32 @llvm.smax.i32(i32 %14, i32 1)
  %16 = sub nsw i32 63, %15
  %17 = zext nneg i32 %16 to i64
  %18 = shl nuw i64 1, %17
  %19 = getelementptr inbounds nuw i8, ptr %3, i64 4
  %20 = sitofp i64 %18 to double
  %21 = tail call nsz double @llvm.fmuladd.f64(double %0, double %20, double 5.000000e-01)
  %22 = tail call nsz double @llvm.floor.f64(double %21)
  %23 = fptosi double %22 to i64
  %24 = sext i32 %1 to i64
  %25 = call i32 @av_reduce(ptr noundef nonnull %3, ptr noundef nonnull %19, i64 noundef %23, i64 noundef %18, i64 noundef %24)
  %.sroa.0.0.copyload = load i32, ptr %3, align 4, !tbaa !4
  %.sroa.4.0.copyload = load i32, ptr %19, align 4, !tbaa !4
  %26 = zext i32 %.sroa.4.0.copyload to i64
  %27 = shl nuw i64 %26, 32
  br label %28

28:                                               ; preds = %2, %12, %9
  %.sroa.0.0 = phi i32 [ %11, %9 ], [ %.sroa.0.0.copyload, %12 ], [ 0, %2 ]
  %.sroa.4.0 = phi i64 [ 0, %9 ], [ %27, %12 ], [ 0, %2 ]
  call void @llvm.lifetime.end.p0(i64 4, ptr nonnull %4) #9
  call void @llvm.lifetime.end.p0(i64 8, ptr nonnull %3) #9
  %.sroa.0.0.insert.ext = zext i32 %.sroa.0.0 to i64
  %.sroa.0.0.insert.insert = or disjoint i64 %.sroa.4.0, %.sroa.0.0.insert.ext
  ret i64 %.sroa.0.0.insert.insert
}